(lp0
(lp1
F12.021930401454872
aF11.953112884946181
aF11.906991599400385
aF11.85484122115893
aF11.80839180241507
aF11.779139267881485
aF11.715599134134989
aF11.662976968949016
aF11.62247141749347
aF11.581526574715616
aF11.55855245523498
aF11.494809368468314
aF11.424801363322953
aF11.377986053027799
aF11.308066049679162
aF11.201815347919785
aF11.123508841347318
aF11.06929061350907
aF11.008953301342027
aF10.985061864324392
aF10.955281109080472
aF10.877559392956949
aF10.817527479156151
aF10.76936671903371
aF10.697859164783717
aF10.643852368205195
aF10.55941286974154
aF10.475932461486144
aF10.422252169160888
aF10.368644941580431
aF10.266118441371736
aF10.211841003651491
aF10.158150763942555
aF10.110531364466064
aF10.06245861811652
aF9.99010965223817
aF9.912334777093706
aF9.864642389275678
aF9.834626338486283
aF9.756359543584605
aF9.69071404693512
aF9.654681328901892
aF9.594435579113254
aF9.5408141932498
aF9.463351731389862
aF9.421204819854575
aF9.342954483968946
aF9.277260283989632
aF9.162867393211677
aF9.103113209489345
aF9.049381914447977
aF9.019482765824156
aF8.947300752474483
aF8.893084989586661
aF8.845370803223137
aF8.779786117643727
aF8.737588050882254
aF8.689444374930035
aF8.629171564152442
aF8.563501950635224
aF8.515689105892957
aF8.479613697849958
aF8.431429232097315
aF8.359086186708733
aF8.329216790142134
aF8.257630523474916
aF8.221613713946077
aF8.173448610177514
aF8.113634267228859
aF8.054072604760702
aF8.011998837191282
aF7.927607328406301
aF7.885394459949243
aF7.8431447522857445
aF7.819089680079702
aF7.795095952511347
aF7.7771310070455435
aF7.7472378121829095
aF7.71740752707818
aF7.6692639556457145
aF7.6211733533273085
aF7.567486817161542
aF7.489381155820692
aF7.459423292170688
aF7.405670665603982
aF7.3275859919100235
aF7.279365260164
aF7.207765803219753
aF7.165957906404103
aF7.087905818047443
aF7.02762840994008
aF6.956059180800908
aF6.914008479401687
aF6.878215159037532
aF6.854266546090488
aF6.7940393665485805
aF6.752098165315795
aF6.716235892653171
aF6.650726303779527
aF6.614624461152199
aF6.536243436163323
aF6.481954334941099
aF6.445907942702185
aF6.397728614268093
aF6.3500761806759645
aF6.27843421981332
aF6.236471340427348
aF6.194360969808278
aF6.164241317993022
aF6.085850540065902
aF6.050056132378963
aF6.002433293085378
aF5.960618461347067
aF5.901092590358297
aF5.858873375809449
aF5.828704764926475
aF5.774474850198246
aF5.732262943464976
aF5.660273381237227
aF5.594702841872356
aF5.564768288340938
aF5.474393926182502
aF5.444254398978707
aF5.3839404449076005
aF5.347977734514107
aF5.312039477971055
aF5.2702273174449665
aF5.198787673828799
aF5.16881537156995
aF5.1267364090181955
aF5.096638274875231
aF5.054472110630882
aF4.988122541598129
aF4.94026457399717
aF4.886426490159719
aF4.838784901088411
aF4.778767888571347
aF4.7487167930098675
aF4.70657324657603
aF4.664401496490059
aF4.6342542534540625
aF4.58049751188373
aF4.5207575955631425
aF4.478772924070555
aF4.4547387095342525
aF4.406583442896743
aF4.376707615676099
aF4.3052742919288285
aF4.245213108833228
aF4.215104639350868
aF4.190996525572465
aF4.1608357788580586
aF4.1190495636798525
aF4.0772012621445946
aF4.0473310018921085
aF3.9877739958053815
aF3.93375595536077
aF3.867515704626894
aF3.8132408956406985
aF3.7833956487844347
aF3.7235927173263987
aF3.675570464417079
aF3.6334196493128497
aF3.5678294677526665
aF3.5197500145306533
aF3.471538957688478
aF3.4238228377460596
aF3.3760576444120733
aF3.3520876619412823
aF3.316001208069854
aF3.2617766426623094
aF3.2197618369763434
aF3.1779156110052806
aF3.094554839436346
aF3.0523277268318196
aF2.985969918832064
aF2.92570065506688
aF2.84728275216456
aF2.805476020474062
aF2.745946619959479
aF2.6982491707081584
aF2.650601397683057
aF2.61462881783619
aF2.5785240804975387
aF2.5122889356135083
aF2.4700720258901336
aF2.4163952886145488
aF2.3210421452901344
aF2.2547918103386997
aF2.206571251953147
aF2.140209811885654
aF2.086372325074363
aF2.020937285576236
aF1.931584980706372
aF1.9017911943104313
aF1.8478327430318677
aF1.799640044733008
aF1.7394409800228836
aF1.7093046443643702
aF1.6616021894104172
aF1.6198473506437177
aF1.5537904333091574
aF1.494120734980939
aF1.440089127264026
aF1.3858449545875482
aF1.3201619718293593
aF1.2903040013598828
aF1.2422637067168294
aF1.188097774277182
aF1.1462687698371763
aF1.0748145954624473
aF1.0147482783249109
aF0.9846341427834422
aF0.9424433166461493
aF0.8467447213832278
aF0.810737486349584
aF0.7264388622274389
aF0.678722112651693
aF0.595184076919496
aF0.559030349835199
aF0.44450547966696646
aa(lp2
I0
aI0
aI0
aI0
aI0
aI0
aI0
aI0
aI0
aI0
aI0
aI0
aI0
aI0
aI0
aI0
aI0
aI0
aI0
aI0
aI0
aI0
aI0
aI0
aI0
aI0
aI0
aI0
aI0
aI0
aI0
aI0
aI0
aI0
aI0
aI0
aI0
aI0
aI0
aI0
aI0
aI0
aI0
aI0
aI0
aI0
aI0
aI0
aI0
aI0
aI0
aI0
aI0
aI0
aI0
aI0
aI0
aI0
aI0
aI0
aI0
aI0
aI0
aI0
aI0
aI0
aI0
aI0
aI0
aI0
aI0
aI0
aI0
aI0
aI0
aI0
aI0
aI0
aI0
aI0
aI0
aI0
aI0
aI0
aI0
aI0
aI0
aI0
aI0
aI0
aI0
aI0
aI0
aI0
aI0
aI0
aI0
aI0
aI0
aI0
aI0
aI1
aI1
aI0
aI0
aI0
aI0
aI0
aI0
aI0
aI0
aI0
aI1
aI1
aI1
aI1
aI1
aI1
aI1
aI1
aI1
aI1
aI1
aI1
aI1
aI1
aI1
aI0
aI0
aI0
aI0
aI1
aI1
aI1
aI1
aI1
aI1
aI1
aI1
aI0
aI0
aI1
aI1
aI1
aI1
aI0
aI1
aI1
aI1
aI1
aI1
aI1
aI1
aI1
aI1
aI1
aI1
aI1
aI1
aI1
aI1
aI1
aI1
aI1
aI1
aI1
aI1
aI1
aI1
aI1
aI1
aI1
aI1
aI1
aI1
aI1
aI1
aI1
aI1
aI1
aI1
aI1
aI1
aI1
aI1
aI1
aI1
aI1
aI1
aI1
aI1
aI1
aI1
aI1
aI1
aI1
aI1
aI1
aI1
aI1
aI1
aI1
aI1
aI1
aI1
aI1
aI1
aI1
aI1
aI1
aI1
aI0
aI1
aI1
aI1
aI1
aI1
aI1
aI0
aI0
aI0
aa.