(lp0
(lp1
F12.03033516862661
aF11.875858781557104
aF11.840611756472915
aF11.817782722519738
aF11.788820641733997
aF11.759610162045997
aF11.730389200293551
aF11.701393150860595
aF11.672426790173386
aF11.643242149622392
aF11.614079005303592
aF11.585128496003117
aF11.556163623438689
aF11.526949452042816
aF11.498244548550572
aF11.469037918401014
aF11.440353870465945
aF11.382569490014118
aF11.353206910619605
aF11.323957812345505
aF11.294338822227028
aF11.26478462659483
aF11.234926700255484
aF11.20494433664588
aF11.175161226931843
aF11.145418303116823
aF11.115439883953663
aF11.085593570093351
aF11.055566497951723
aF11.025457716674667
aF10.995618932591851
aF10.965868950866003
aF10.936049656570036
aF10.906055819713245
aF10.875971421600887
aF10.845867097467293
aF10.815921851431215
aF10.78585880127039
aF10.755993234691598
aF10.725946618164144
aF10.696078666889054
aF10.666038918065164
aF10.63616496146079
aF10.606104554929559
aF10.57621542704584
aF10.546257073775026
aF10.516129449848515
aF10.486278107673238
aF10.450526970337108
aF10.414491018578216
aF10.396513987601672
aF10.366445625923868
aF10.336624295622885
aF10.3066097973309
aF10.276753772892445
aF10.246752218154386
aF10.210946344299126
aF10.18694409849968
aF10.144759971099829
aF10.102963044867371
aF10.07912429723584
aF10.055167124449424
aF10.02507555322737
aF10.007126380413627
aF9.977305563258207
aF9.94725824183036
aF9.917152056142365
aF9.875340957478214
aF9.85152798051369
aF9.827508536477076
aF9.797414024871363
aF9.761574676190543
aF9.73753878467428
aF9.707462258723634
aF9.677573150554961
aF9.647750446027297
aF9.617714091754713
aF9.581570929038497
aF9.55766326179426
aF9.527898289115347
aF9.498079768476348
aF9.468081892466147
aF9.438024206890582
aF9.407918536652698
aF9.378002296871239
aF9.34811630990196
aF9.31809607945225
aF9.288009558960127
aF9.263921120431393
aF9.228000468190059
aF9.192117937028726
aF9.168168633402983
aF9.13811401352928
aF9.114052643694487
aF9.07788561780824
aF9.048037855196412
aF9.018265025870079
aF8.988235628459085
aF8.958413535236811
aF8.928413320248639
aF8.89857522408742
aF8.868537937734562
aF8.844623370294093
aF8.808579596497491
aF8.778432566126147
aF8.748556456710963
aF8.712814059425718
aF8.664733075758516
aF8.652720390533128
aF8.616969167349943
aF8.592968017076021
aF8.568876061836976
aF8.539023968952964
aF8.509247896348736
aF8.479243113896924
aF8.449166507638015
aF8.419298676764603
aF8.395294669801157
aF8.359379145860851
aF8.329306139723752
aF8.299412138518331
aF8.26934584884058
aF8.23951572768056
aF8.209492921922356
aF8.179650061011094
aF8.14962487541032
aF8.119729820173426
aF8.089706341098633
aF8.059855609108954
aF8.02986552495895
aF7.987709538635739
aF7.969750470528126
aF7.927857933267466
aF7.909948364546505
aF7.8799678976623415
aF7.849918417608369
aF7.819824527772257
aF7.789985736221406
aF7.760105296802967
aF7.730109008310585
aF7.7000659489176675
aF7.669963373783222
aF7.640122654877313
aF7.610334078735576
aF7.580336768904914
aF7.556258857933254
aF7.520271731384852
aF7.490390873189957
aF7.460401838207537
aF7.436361112592325
aF7.406261366801436
aF7.370358400163319
aF7.340310726731644
aF7.3164089466189965
aF7.274610512836254
aF7.250627522978383
aF7.208544236372691
aF7.190494794853885
aF7.160356031971741
aF7.130526494536797
aF7.094750500166979
aF7.0707326578237035
aF7.034621228928711
aF6.992711962745427
aF6.980714963582535
aF6.950647757544917
aF6.920749890632201
aF6.890679090254944
aF6.860806397178813
aF6.8307694768860925
aF6.8006510005970275
aF6.770679509571485
aF6.740788699100247
aF6.710787037363351
aF6.67469003738887
aF6.650607328579491
aF6.6207343334238224
aF6.590946214665954
aF6.560950395734604
aF6.530857354834491
aF6.501002851331328
aF6.471183585545138
aF6.441158980420081
aF6.411063898659734
aF6.381198897159973
aF6.351164455817233
aF6.327228619255749
aF6.291205211032415
aF6.2613333917816
aF6.231296333245951
aF6.195171144429258
aF6.165276436073813
aF6.141348305029065
aF6.111324192553636
aF6.075445360157409
aF6.0454368184953955
aF6.015316516070134
aF5.973578508401021
aF5.937800122733909
aF5.919820563397416
aF5.895778407901106
aF5.871696067720687
aF5.841559176938475
aF5.811713633880651
aF5.770023998151273
aF5.739976472424339
aF5.71590096834227
aF5.69197708696342
aF5.662187210895871
aF5.5899759505054645
aF5.554076479739211
aF5.53024711648648
aF5.494394072992912
aF5.4584133612610275
aF5.428367637086184
aF5.398269237863379
aF5.350336744834494
aF5.320315094983386
aF5.290220168163374
aF5.254372291230365
aF5.236436598723949
aF5.206445747607802
aF5.182379897700307
aF5.140571580283774
aF5.116629458020676
aF5.0925888998990585
aF5.062497880580734
aF5.026350446950646
aF5.002455494281419
aF4.972664515836602
aF4.936928334499375
aF4.9069063340544625
aF4.876814909733305
aF4.846680847506689
aF4.816830980615102
aF4.775102705865678
aF4.739121922394222
aF4.703006217241935
aF4.673139927074529
aF4.637367563247027
aF4.607364454004938
aF4.565233300270967
aF4.559210618820427
aF4.547296922501704
aF4.517520994100395
aF4.49354897507727
aF4.457399358364196
aF4.427572035980069
aF4.385716712377854
aF4.367737228939547
aF4.337691442231803
aF4.30763438934794
aF4.271477090264498
aF4.2475895418608784
aF4.223766563292446
aF4.182098938750448
aF4.158090555944637
aF4.121997031514499
aF4.0980718287379725
aF4.074041086913996
aF4.044136085218422
aF4.014275469904
aF3.9783088851262587
aF3.9482306853387836
aF3.9181586447013763
aF3.8759923437900254
aF3.8460620889117103
aF3.792275084262838
aF3.7683994020665765
aF3.7384606048775324
aF3.6903935407650295
aF3.6542997554525476
aF3.6363478424859226
aF3.5885682416919282
aF3.5585784197156363
aF3.5104473226975474
aF3.4682841262802406
aF3.4324863375740584
aF3.3967772007365347
aF3.3607488352061563
aF3.3248021213681684
aF3.2827305915583005
aF3.235035335023045
aF3.205043868653907
aF3.174921507060719
aF3.1507985576329176
aF3.132870247401868
aF3.097086954561657
aF3.061036839786232
aF3.0250996553262373
aF2.9951105180895397
aF2.9589954227169564
aF2.9351014347320286
aF2.8933189627580695
aF2.8453357851130985
aF2.797199664747753
aF2.767069920978309
aF2.737197556057295
aF2.7073636501088805
aF2.6774706990180706
aF2.647478409403425
aF2.6173922017501154
aF2.5812495896319185
aF2.551377842318181
aF2.5274362313508174
aF2.491611390193497
aF2.4436881889791806
aF2.431674054074012
aF2.395577771522343
aF2.371492871165144
aF2.3292799140747413
aF2.2934712344758665
aF2.2696611596415686
aF2.2398928182223368
aF2.1978818959142465
aF2.1738942803527417
aF2.1380916894833417
aF2.09607469713363
aF2.0659720925215166
aF2.023787419932901
aF1.9938462619925157
aF1.9579428820263467
aF1.934071552497471
aF1.898100327126213
aF1.8620840170913335
aF1.8320212228709245
aF1.8081160831615122
aF1.7780963187140586
aF1.7363193570232522
aF1.7063057584355397
aF1.6641453662165366
aF1.6162528749084102
aF1.5923572280987417
aF1.5623545006806885
aF1.5202588947527866
aF1.460387631764836
aF1.4303937923160035
aF1.4003201250958655
aF1.370214190515677
aF1.3403805366069945
aF1.298280806526285
aF1.2624548972772622
aF1.232413603835139
aF1.1966024272996065
aF1.1484907062111676
aF1.1066539537843776
aF1.0767654852193962
aF1.0286760813049751
aF0.9985592506501542
aF0.9623902101910128
aF0.9204424555434888
aF0.8785846664729405
aF0.8365522735191255
aF0.7763772501887038
aF0.7465343861719544
aF0.7108176008469307
aF0.663181675514065
aF0.627170708309883
aF0.5970924554030971
aF0.5488756983435105
aF0.507056908165371
aF0.4592676508890637
aa(lp2
I0
aI0
aI0
aI0
aI0
aI0
aI0
aI0
aI0
aI0
aI0
aI0
aI0
aI0
aI0
aI0
aI0
aI0
aI0
aI0
aI0
aI0
aI0
aI0
aI0
aI0
aI0
aI0
aI0
aI0
aI0
aI0
aI0
aI0
aI0
aI0
aI0
aI0
aI0
aI0
aI0
aI0
aI0
aI0
aI0
aI0
aI0
aI0
aI0
aI0
aI0
aI0
aI0
aI0
aI0
aI0
aI0
aI0
aI0
aI0
aI0
aI0
aI0
aI0
aI0
aI0
aI0
aI0
aI0
aI0
aI0
aI0
aI0
aI0
aI0
aI0
aI0
aI0
aI0
aI0
aI0
aI0
aI0
aI0
aI0
aI0
aI0
aI0
aI0
aI0
aI0
aI0
aI0
aI0
aI0
aI0
aI0
aI0
aI0
aI0
aI0
aI0
aI0
aI0
aI0
aI0
aI0
aI0
aI0
aI0
aI0
aI0
aI0
aI0
aI0
aI0
aI0
aI0
aI0
aI0
aI0
aI0
aI0
aI0
aI0
aI0
aI0
aI0
aI0
aI0
aI0
aI0
aI0
aI0
aI0
aI0
aI0
aI0
aI0
aI0
aI0
aI0
aI0
aI0
aI0
aI0
aI0
aI0
aI0
aI0
aI0
aI0
aI0
aI0
aI0
aI0
aI0
aI0
aI0
aI0
aI0
aI0
aI0
aI0
aI0
aI0
aI0
aI0
aI0
aI0
aI0
aI0
aI0
aI0
aI0
aI0
aI0
aI0
aI0
aI0
aI1
aI0
aI0
aI0
aI1
aI1
aI1
aI1
aI1
aI1
aI1
aI1
aI1
aI1
aI0
aI0
aI0
aI1
aI0
aI1
aI1
aI0
aI1
aI1
aI0
aI0
aI1
aI1
aI1
aI1
aI0
aI1
aI1
aI1
aI1
aI1
aI1
aI1
aI1
aI0
aI0
aI1
aI1
aI1
aI1
aI1
aI1
aI1
aI1
aI1
aI1
aI1
aI0
aI1
aI1
aI1
aI1
aI1
aI1
aI1
aI1
aI1
aI1
aI1
aI1
aI1
aI1
aI1
aI1
aI1
aI1
aI1
aI0
aI1
aI1
aI1
aI1
aI1
aI1
aI1
aI1
aI1
aI1
aI1
aI1
aI0
aI1
aI1
aI1
aI1
aI1
aI1
aI1
aI1
aI1
aI1
aI1
aI1
aI1
aI1
aI1
aI1
aI1
aI1
aI1
aI1
aI1
aI1
aI1
aI1
aI1
aI1
aI1
aI1
aI1
aI1
aI1
aI1
aI1
aI1
aI1
aI1
aI1
aI1
aI1
aI1
aI1
aI1
aI1
aI1
aI1
aI1
aI1
aI1
aI1
aI1
aI1
aI1
aI1
aI1
aI1
aI1
aI1
aI1
aI1
aI1
aI1
aI1
aI1
aI1
aI1
aI1
aI1
aI1
aI1
aI1
aI1
aI1
aI1
aI1
aI1
aI1
aI1
aI1
aI1
aI1
aI1
aI1
aI1
aI1
aI1
aI1
aI1
aI1
aI1
aI1
aI1
aI1
aI0
aI0
aI0
aI0
aa.