(lp0
(lp1
F12.023564830299733
aF11.91094288583449
aF11.87025453297445
aF11.829749067660593
aF11.789192613034494
aF11.789192613034494
aF11.759970048424428
aF11.730806963272213
aF11.684511816162207
aF11.643717137524549
aF11.591564438397386
aF11.550814308425176
aF11.452491437285676
aF11.423521921636107
aF11.388249193769484
aF11.358984446703207
aF11.324017413504892
aF11.258769066468867
aF11.21714553796227
aF11.110165179868357
aF11.05617451508974
aF11.038122729124051
aF10.99600477914244
aF10.923636194754101
aF10.86401720706575
aF10.816400219672786
aF10.768388919603192
aF10.738309358089511
aF10.70248760372144
aF10.648858397413278
aF10.612907277815289
aF10.546755202531601
aF10.492516040522762
aF10.456582787703582
aF10.420873591665218
aF10.32540105614194
aF10.295277156156384
aF10.252988016436898
aF10.192777975057375
aF10.150530419518494
aF10.0965280681048
aF10.03675795007988
aF9.934653185151289
aF9.89886732094942
aF9.838801719546819
aF9.796884428856142
aF9.778958924121454
aF9.754965498282402
aF9.700809637255814
aF9.694781801295996
aF9.682879535392665
aF9.617388299295321
aF9.575380958333641
aF9.557333207467778
aF9.509104008572086
aF9.461283754764336
aF9.431499906330572
aF9.341291088824395
aF9.269642871204963
aF9.204063441751481
aF9.14395381350155
aF9.0716534621796
aF9.01136100959567
aF8.927573821200184
aF8.897709695741263
aF8.849553853130528
aF8.825489738231477
aF8.783335731637962
aF8.705552372201225
aF8.651935095443529
aF8.603726967301679
aF8.519359575570027
aF8.483167765455178
aF8.45926990816064
aF8.411551866480059
aF8.36973130667489
aF8.291559763898498
aF8.261436284213715
aF8.23129212897592
aF8.195494627549458
aF8.118009312318378
aF8.069961638318045
aF8.039890424103252
aF7.985646318162821
aF7.920082908734855
aF7.878444168851803
aF7.824375223985637
aF7.745973800577243
aF7.704240987794654
aF7.656364316669954
aF7.590833695359704
aF7.560848859078703
aF7.524780549310229
aF7.4947042538651525
aF7.452518674589614
aF7.3928641550156176
aF7.33880977910478
aF7.30896926520705
aF7.27288050390646
aF7.231099632470408
aF7.1829702055658675
aF7.135037859072963
aF7.044833642065525
aF7.014991051659732
aF6.973301218150734
aF6.925673971355894
aF6.877612067069034
aF6.8414704224075455
aF6.77573919730551
aF6.745694348681821
aF6.715598341371552
aF6.667749886503326
aF6.607669637164106
aF6.535920044475924
aF6.475877185534128
aF6.457827447625106
aF6.403566585018065
aF6.367732772032169
aF6.325980647604404
aF6.3080488912271395
aF6.2663450163712735
aF6.230287537778638
aF6.175998538851543
aF6.115744710515738
aF6.031909091768866
aF5.941675322450306
aF5.905752851931526
aF5.8401320948319535
aF5.773829055399354
aF5.743727934099709
aF5.701542139947
aF5.671694395345695
aF5.635854958080819
aF5.587793012362101
aF5.551650420427871
aF5.486103657375926
aF5.414669405487619
aF5.348722494019938
aF5.288564157941072
aF5.210199171132261
aF5.168492328699102
aF5.144719606249044
aF5.114981894057938
aF5.085213338502241
aF5.049173286608466
aF5.019314397223106
aF4.995285986707279
aF4.923023862060015
aF4.899136933143386
aF4.869360791063383
aF4.845562805218101
aF4.815720606133899
aF4.756151188688898
aF4.726230563998172
aF4.672150211066986
aF4.599871317236877
aF4.563653869986245
aF4.4489511081274635
aF4.389228140815826
aF4.3119984903769275
aF4.216714235129643
aF4.175062068559482
aF4.139358090205917
aF4.103589837654121
aF4.073569339116543
aF4.007346261260575
aF3.9410799070884277
aF3.8627008437281036
aF3.808926596789846
aF3.7552476809012796
aF3.7134934050076605
aF3.6654645281645513
aF3.6112984534773362
aF3.5449624767722985
aF3.497152757606207
aF3.4614650513960363
aF3.36609527255582
aF3.3300177137208666
aF3.305862158522726
aF3.2757849855006174
aF3.2094852046593823
aF3.1076697094044365
aF3.0355824031176137
aF2.922384610250454
aF2.874222865269871
aF2.84412506888668
aF2.7838896643500766
aF2.7236014519776264
aF2.6399759339407303
aF2.514795464357509
aF2.46054041909552
aF2.321850424657343
aF2.261506049077454
aF2.184097839742913
aF2.1245325467053373
aF2.064919902544524
aF2.0287564785499
aF1.9805897415109865
aF1.9504560660597334
aF1.9082461202865055
aF1.8723965834633642
aF1.8364818515278696
aF1.7768690566959362
aF1.7348872020137274
aF1.7108319498114655
aF1.6807548111251107
aF1.6144610257127383
aF1.5726988337426517
aF1.5249988918591155
aF1.440800894606081
aF1.3869777359205517
aF1.3392523560348322
aF1.2551601212032863
aF1.194890618484818
aF1.1466050449482355
aF1.116730789001302
aF0.991470842725726
aF0.9254565215193701
aF0.8894053257609321
aF0.853255017479046
aF0.8050159518018793
aF0.7386314351169561
aF0.6670634984862699
aF0.6254177234441881
aF0.5778451526182025
aF0.5004152680975104
aF0.44086844632502364
aa(lp2
I0
aI0
aI0
aI0
aI0
aI0
aI0
aI0
aI0
aI0
aI0
aI0
aI0
aI0
aI0
aI0
aI0
aI0
aI0
aI0
aI0
aI0
aI0
aI0
aI0
aI0
aI0
aI0
aI0
aI0
aI0
aI0
aI0
aI0
aI0
aI0
aI0
aI0
aI0
aI0
aI0
aI0
aI0
aI0
aI0
aI0
aI0
aI0
aI0
aI0
aI0
aI0
aI0
aI0
aI0
aI0
aI0
aI0
aI0
aI0
aI0
aI0
aI0
aI0
aI0
aI0
aI0
aI0
aI0
aI0
aI0
aI0
aI0
aI0
aI0
aI0
aI0
aI0
aI0
aI0
aI0
aI0
aI0
aI0
aI0
aI0
aI0
aI0
aI0
aI0
aI0
aI0
aI0
aI0
aI0
aI0
aI0
aI0
aI0
aI0
aI0
aI0
aI0
aI0
aI0
aI0
aI0
aI0
aI0
aI0
aI0
aI1
aI0
aI0
aI0
aI0
aI1
aI0
aI0
aI0
aI0
aI0
aI0
aI0
aI1
aI1
aI1
aI1
aI1
aI1
aI1
aI1
aI0
aI1
aI1
aI1
aI1
aI1
aI1
aI0
aI0
aI0
aI1
aI1
aI1
aI1
aI1
aI1
aI0
aI0
aI0
aI0
aI1
aI1
aI0
aI1
aI1
aI1
aI1
aI1
aI1
aI1
aI1
aI0
aI1
aI1
aI0
aI1
aI1
aI1
aI1
aI1
aI1
aI1
aI1
aI1
aI1
aI1
aI0
aI1
aI1
aI1
aI1
aI1
aI1
aI1
aI1
aI1
aI1
aI1
aI1
aI1
aI1
aI1
aI1
aI1
aI1
aI1
aI1
aI1
aI1
aI1
aI1
aI1
aI1
aI1
aI1
aI1
aI1
aI1
aI1
aI1
aI1
aI1
aI1
aI0
aI1
aI1
aI0
aI0
aI1
aI1
aI1
aI0
aI0
aI0
aI0
aa.